target datalayout = "e-m:e-p270:32:32-p271:32:32-p272:64:64-i64:64-i128:128-f80:128-n8:16:32:64-S128"
target triple = "x86_64-pc-linux-gnu"

%struct.SDL_Renderer = type { ptr, ptr, ptr, ptr, ptr, ptr, ptr, ptr, ptr, ptr, ptr, ptr, ptr, ptr, ptr, ptr, ptr, ptr, ptr, ptr, ptr, ptr, ptr, ptr, ptr, ptr, ptr, ptr, ptr, ptr, i32, i8, ptr, i8, i8, i8, i64, i64, ptr, %struct.SDL_RenderViewState, %struct.SDL_FPoint, i32, i32, ptr, ptr, ptr, i32, float, float, float, float, %struct.SDL_FColor, i32, i32, i32, ptr, ptr, ptr, ptr, i32, %struct.SDL_FColor, float, %struct.SDL_Rect, %struct.SDL_Rect, i8, i8, i8, i8, ptr, i64, i64, i8, ptr, ptr, i32, ptr, i8, ptr, ptr }
%struct.SDL_RenderViewState = type { i32, i32, %struct.SDL_Rect, %struct.SDL_Rect, %struct.SDL_Rect, %struct.SDL_Rect, i8, %struct.SDL_FPoint, i32, i32, i32, %struct.SDL_FRect, %struct.SDL_FRect, %struct.SDL_FPoint, %struct.SDL_FPoint, %struct.SDL_FPoint }
%struct.SDL_FRect = type { float, float, float, float }
%struct.SDL_FPoint = type { float, float }
%struct.SDL_FColor = type { float, float, float, float }
%struct.SDL_Rect = type { i32, i32, i32, i32 }
%struct.GL_RenderData = type { ptr, i8, i8, i32, ptr, ptr, ptr, i32, i8, i8, i8, ptr, ptr, ptr, ptr, ptr, ptr, ptr, ptr, ptr, ptr, ptr, ptr, ptr, ptr, ptr, ptr, ptr, ptr, ptr, ptr, ptr, ptr, ptr, ptr, ptr, ptr, ptr, ptr, ptr, ptr, ptr, ptr, ptr, ptr, ptr, ptr, ptr, ptr, ptr, ptr, ptr, ptr, ptr, ptr, ptr, ptr, ptr, ptr, ptr, i8, ptr, i32, ptr, ptr, ptr, ptr, ptr, ptr, %struct.GL_DrawStateCache }
%struct.GL_DrawStateCache = type { i8, %struct.SDL_Rect, ptr, ptr, i32, i32, i32, i32, [4 x float], ptr, i8, i8, i8, %struct.SDL_Rect, i8, i8, i8, i8, i8, i8, %struct.SDL_FColor, i8, %struct.SDL_FColor }

@.str.20 = private unnamed_addr constant [3 x i8] c"%s\00", align 1

; Function Attrs: nounwind uwtable
define internal void @GL_HandleDebugMessage(i32 noundef %0, i32 noundef %1, i32 noundef %2, i32 noundef %3, i32 noundef %4, ptr noundef %5, ptr noundef %6) #0 {
  %8 = alloca i32, align 4
  %9 = alloca i32, align 4
  %10 = alloca i32, align 4
  %11 = alloca i32, align 4
  %12 = alloca i32, align 4
  %13 = alloca ptr, align 8
  %14 = alloca ptr, align 8
  %15 = alloca ptr, align 8
  %16 = alloca ptr, align 8
  %17 = alloca i32, align 4
  %18 = alloca ptr, align 8
  store i32 %0, ptr %8, align 4
  store i32 %1, ptr %9, align 4
  store i32 %2, ptr %10, align 4
  store i32 %3, ptr %11, align 4
  store i32 %4, ptr %12, align 4
  store ptr %5, ptr %13, align 8
  store ptr %6, ptr %14, align 8
  call void @llvm.lifetime.start.p0(i64 8, ptr %15) #4
  %19 = load ptr, ptr %14, align 8
  store ptr %19, ptr %15, align 8
  call void @llvm.lifetime.start.p0(i64 8, ptr %16) #4
  %20 = load ptr, ptr %15, align 8
  %21 = getelementptr inbounds nuw %struct.SDL_Renderer, ptr %20, i32 0, i32 77
  %22 = load ptr, ptr %21, align 8
  store ptr %22, ptr %16, align 8
  %23 = load i32, ptr %9, align 4
  %24 = icmp eq i32 %23, 33356
  br i1 %24, label %25, label %58

25:                                               ; preds = %7
  call void @llvm.lifetime.start.p0(i64 4, ptr %17) #4
  %26 = load ptr, ptr %16, align 8
  %27 = getelementptr inbounds nuw %struct.GL_RenderData, ptr %26, i32 0, i32 3
  %28 = load i32, ptr %27, align 4
  %29 = add nsw i32 %28, 1
  store i32 %29, ptr %17, align 4
  call void @llvm.lifetime.start.p0(i64 8, ptr %18) #4
  %30 = load ptr, ptr %16, align 8
  %31 = getelementptr inbounds nuw %struct.GL_RenderData, ptr %30, i32 0, i32 4
  %32 = load ptr, ptr %31, align 8
  %33 = load i32, ptr %17, align 4
  %34 = sext i32 %33 to i64
  %35 = mul i64 %34, 8
  %36 = call ptr @SDL_realloc_REAL(ptr noundef %32, i64 noundef %35) #9
  store ptr %36, ptr %18, align 8
  %37 = load ptr, ptr %18, align 8
  %38 = icmp ne ptr %37, null
  br i1 %38, label %39, label %57

39:                                               ; preds = %25
  %40 = load i32, ptr %17, align 4
  %41 = load ptr, ptr %16, align 8
  %42 = getelementptr inbounds nuw %struct.GL_RenderData, ptr %41, i32 0, i32 3
  store i32 %40, ptr %42, align 4
  %43 = load ptr, ptr %18, align 8
  %44 = load ptr, ptr %16, align 8
  %45 = getelementptr inbounds nuw %struct.GL_RenderData, ptr %44, i32 0, i32 4
  store ptr %43, ptr %45, align 8
  %46 = load ptr, ptr %13, align 8
  %47 = call noalias ptr @SDL_strdup_REAL(ptr noundef %46)
  %48 = load ptr, ptr %16, align 8
  %49 = getelementptr inbounds nuw %struct.GL_RenderData, ptr %48, i32 0, i32 4
  %50 = load ptr, ptr %49, align 8
  %51 = load ptr, ptr %16, align 8
  %52 = getelementptr inbounds nuw %struct.GL_RenderData, ptr %51, i32 0, i32 3
  %53 = load i32, ptr %52, align 4
  %54 = sub nsw i32 %53, 1
  %55 = sext i32 %54 to i64
  %56 = getelementptr inbounds ptr, ptr %50, i64 %55
  store ptr %47, ptr %56, align 8
  br label %57

57:                                               ; preds = %39, %25
  call void @llvm.lifetime.end.p0(i64 8, ptr %18) #4
  call void @llvm.lifetime.end.p0(i64 4, ptr %17) #4
  br label %58

58:                                               ; preds = %57, %7
  %59 = load ptr, ptr %16, align 8
  %60 = getelementptr inbounds nuw %struct.GL_RenderData, ptr %59, i32 0, i32 5
  %61 = load ptr, ptr %60, align 8
  %62 = icmp ne ptr %61, null
  br i1 %62, label %63, label %76

63:                                               ; preds = %58
  %64 = load ptr, ptr %16, align 8
  %65 = getelementptr inbounds nuw %struct.GL_RenderData, ptr %64, i32 0, i32 5
  %66 = load ptr, ptr %65, align 8
  %67 = load i32, ptr %8, align 4
  %68 = load i32, ptr %9, align 4
  %69 = load i32, ptr %10, align 4
  %70 = load i32, ptr %11, align 4
  %71 = load i32, ptr %12, align 4
  %72 = load ptr, ptr %13, align 8
  %73 = load ptr, ptr %16, align 8
  %74 = getelementptr inbounds nuw %struct.GL_RenderData, ptr %73, i32 0, i32 6
  %75 = load ptr, ptr %74, align 8
  call void %66(i32 noundef %67, i32 noundef %68, i32 noundef %69, i32 noundef %70, i32 noundef %71, ptr noundef %72, ptr noundef %75)
  br label %84

76:                                               ; preds = %58
  %77 = load i32, ptr %9, align 4
  %78 = icmp eq i32 %77, 33356
  br i1 %78, label %79, label %81

79:                                               ; preds = %76
  %80 = load ptr, ptr %13, align 8
  call void (i32, ptr, ...) @SDL_LogError_REAL(i32 noundef 6, ptr noundef @.str.20, ptr noundef %80)
  br label %83

81:                                               ; preds = %76
  %82 = load ptr, ptr %13, align 8
  call void (i32, ptr, ...) @SDL_LogDebug_REAL(i32 noundef 6, ptr noundef @.str.20, ptr noundef %82)
  br label %83

83:                                               ; preds = %81, %79
  br label %84

84:                                               ; preds = %83, %63
  call void @llvm.lifetime.end.p0(i64 8, ptr %16) #4
  call void @llvm.lifetime.end.p0(i64 8, ptr %15) #4
  ret void
}