; Function Attrs: nounwind uwtable
define internal void @GL_HandleDebugMessage(i32 noundef %0, i32 noundef %1, i32 noundef %2, i32 noundef %3, i32 noundef %4, ptr noundef %5, ptr noundef readonly captures(none) %6) #0 {
  %8 = getelementptr inbounds nuw i8, ptr %6, i64 696
  %9 = load ptr, ptr %8, align 8
  %10 = icmp eq i32 %1, 33356
  br i1 %10, label %11, label %.thread

11:                                               ; preds = %7
  %12 = getelementptr inbounds nuw i8, ptr %9, i64 12
  %13 = load i32, ptr %12, align 4
  %14 = add nsw i32 %13, 1
  %15 = getelementptr inbounds nuw i8, ptr %9, i64 16
  %16 = load ptr, ptr %15, align 8
  %17 = sext i32 %14 to i64
  %18 = shl nsw i64 %17, 3
  %19 = tail call ptr @SDL_realloc_REAL(ptr noundef %16, i64 noundef %18) #12
  %.not = icmp eq ptr %19, null
  br i1 %.not, label %27, label %20

20:                                               ; preds = %11
  store i32 %14, ptr %12, align 4
  store ptr %19, ptr %15, align 8
  %21 = tail call noalias ptr @SDL_strdup_REAL(ptr noundef %5) #7
  %22 = load ptr, ptr %15, align 8
  %23 = load i32, ptr %12, align 4
  %24 = sext i32 %23 to i64
  %25 = getelementptr ptr, ptr %22, i64 %24
  %26 = getelementptr i8, ptr %25, i64 -8
  store ptr %21, ptr %26, align 8
  br label %27

27:                                               ; preds = %11, %20
  %28 = getelementptr inbounds nuw i8, ptr %9, i64 24
  %29 = load ptr, ptr %28, align 8
  %.not26 = icmp eq ptr %29, null
  br i1 %.not26, label %36, label %32

.thread:                                          ; preds = %7
  %30 = getelementptr inbounds nuw i8, ptr %9, i64 24
  %31 = load ptr, ptr %30, align 8
  %.not2627 = icmp eq ptr %31, null
  br i1 %.not2627, label %.thread28, label %32

32:                                               ; preds = %.thread, %27
  %33 = phi ptr [ %31, %.thread ], [ %29, %27 ]
  %34 = getelementptr inbounds nuw i8, ptr %9, i64 32
  %35 = load ptr, ptr %34, align 8
  tail call void %33(i32 noundef %0, i32 noundef %1, i32 noundef %2, i32 noundef %3, i32 noundef %4, ptr noundef %5, ptr noundef %35) #7
  br label %37

36:                                               ; preds = %27
  tail call void (i32, ptr, ...) @SDL_LogError_REAL(i32 noundef 6, ptr noundef nonnull @.str.20, ptr noundef %5) #7
  br label %37

.thread28:                                        ; preds = %.thread
  tail call void (i32, ptr, ...) @SDL_LogDebug_REAL(i32 noundef 6, ptr noundef nonnull @.str.20, ptr noundef %5) #7
  br label %37

37:                                               ; preds = %36, %.thread28, %32
  ret void
}